target datalayout = "e-m:e-p270:32:32-p271:32:32-p272:64:64-i64:64-i128:128-f80:128-n8:16:32:64-S128"
target triple = "x86_64-pc-linux-gnu"

%"class.google::protobuf::io::ArrayInputStream" = type { %"class.google::protobuf::io::ZeroCopyInputStream", ptr, i32, i32, i32, i32 }
%"class.google::protobuf::io::ZeroCopyInputStream" = type { ptr }
%"class.google::protobuf::internal::LogMessage" = type { i32, ptr, i32, %"class.std::__cxx11::basic_string" }
%"class.std::__cxx11::basic_string" = type { %"struct.std::__cxx11::basic_string<char>::_Alloc_hider", i64, %union.anon }
%"struct.std::__cxx11::basic_string<char>::_Alloc_hider" = type { ptr }
%union.anon = type { i64, [8 x i8] }
%"class.google::protobuf::internal::LogFinisher" = type { i8 }

@.str = private unnamed_addr constant [162 x i8] c"generated/home/dtcxzyw/WorkSpace/Projects/compilers/llvm-opt-benchmark/bench/opencv/opencv/3rdparty/protobuf/src/google/protobuf/io/zero_copy_stream_impl_lite.cc\00", align 1
@.str.4 = private unnamed_addr constant [31 x i8] c"CHECK failed: (count) >= (0): \00", align 1

; Function Attrs: mustprogress uwtable
define hidden noundef zeroext i1 @_ZN6google8protobuf2io16ArrayInputStream4SkipEi(ptr noundef nonnull align 8 dereferenceable(32) %0, i32 noundef %1) unnamed_addr #4 align 2 personality ptr @__gxx_personality_v0 {
  %3 = alloca i1, align 1
  %4 = alloca ptr, align 8
  %5 = alloca i32, align 4
  %6 = alloca %"class.google::protobuf::internal::LogMessage", align 8
  %7 = alloca i1, align 1
  %8 = alloca i1, align 1
  %9 = alloca ptr, align 8
  %10 = alloca i32, align 4
  %11 = alloca %"class.google::protobuf::internal::LogFinisher", align 1
  store ptr %0, ptr %4, align 8, !tbaa !3
  store i32 %1, ptr %5, align 4, !tbaa !9
  %12 = load ptr, ptr %4, align 8
  %13 = load i32, ptr %5, align 4, !tbaa !9
  %14 = icmp sge i32 %13, 0
  store i1 false, ptr %7, align 1
  store i1 false, ptr %8, align 1
  call void @llvm.lifetime.start.p0(i64 1, ptr %11) #3
  br i1 %14, label %15, label %16

15:                                               ; preds = %2
  br label %20

16:                                               ; preds = %2
  call void @llvm.lifetime.start.p0(i64 56, ptr %6) #3
  store i1 true, ptr %7, align 1
  call void @_ZN6google8protobuf8internal10LogMessageC1ENS0_8LogLevelEPKci(ptr noundef nonnull align 8 dereferenceable(56) %6, i32 noundef 3, ptr noundef @.str, i32 noundef 89)
  store i1 true, ptr %8, align 1
  %17 = invoke noundef nonnull align 8 dereferenceable(56) ptr @_ZN6google8protobuf8internal10LogMessagelsEPKc(ptr noundef nonnull align 8 dereferenceable(56) %6, ptr noundef @.str.4)
          to label %18 unwind label %39

18:                                               ; preds = %16
  invoke void @_ZN6google8protobuf8internal11LogFinisheraSERNS1_10LogMessageE(ptr noundef nonnull align 1 dereferenceable(1) %11, ptr noundef nonnull align 8 dereferenceable(56) %17)
          to label %19 unwind label %43

19:                                               ; preds = %18
  br label %20

20:                                               ; preds = %19, %15
  call void @llvm.lifetime.end.p0(i64 1, ptr %11) #3
  %21 = load i1, ptr %8, align 1
  br i1 %21, label %22, label %23

22:                                               ; preds = %20
  call void @_ZN6google8protobuf8internal10LogMessageD1Ev(ptr noundef nonnull align 8 dereferenceable(56) %6) #3
  br label %23

23:                                               ; preds = %22, %20
  %24 = load i1, ptr %7, align 1
  br i1 %24, label %25, label %26

25:                                               ; preds = %23
  call void @llvm.lifetime.end.p0(i64 56, ptr %6) #3
  br label %26

26:                                               ; preds = %25, %23
  %27 = getelementptr inbounds nuw %"class.google::protobuf::io::ArrayInputStream", ptr %12, i32 0, i32 5
  store i32 0, ptr %27, align 4, !tbaa !20
  %28 = load i32, ptr %5, align 4, !tbaa !9
  %29 = getelementptr inbounds nuw %"class.google::protobuf::io::ArrayInputStream", ptr %12, i32 0, i32 2
  %30 = load i32, ptr %29, align 8, !tbaa !17
  %31 = getelementptr inbounds nuw %"class.google::protobuf::io::ArrayInputStream", ptr %12, i32 0, i32 4
  %32 = load i32, ptr %31, align 8, !tbaa !19
  %33 = sub nsw i32 %30, %32
  %34 = icmp sgt i32 %28, %33
  br i1 %34, label %35, label %54

35:                                               ; preds = %26
  %36 = getelementptr inbounds nuw %"class.google::protobuf::io::ArrayInputStream", ptr %12, i32 0, i32 2
  %37 = load i32, ptr %36, align 8, !tbaa !17
  %38 = getelementptr inbounds nuw %"class.google::protobuf::io::ArrayInputStream", ptr %12, i32 0, i32 4
  store i32 %37, ptr %38, align 8, !tbaa !19
  store i1 false, ptr %3, align 1
  br label %59

39:                                               ; preds = %16
  %40 = landingpad { ptr, i32 }
          cleanup
  %41 = extractvalue { ptr, i32 } %40, 0
  store ptr %41, ptr %9, align 8
  %42 = extractvalue { ptr, i32 } %40, 1
  store i32 %42, ptr %10, align 4
  br label %47

43:                                               ; preds = %18
  %44 = landingpad { ptr, i32 }
          cleanup
  %45 = extractvalue { ptr, i32 } %44, 0
  store ptr %45, ptr %9, align 8
  %46 = extractvalue { ptr, i32 } %44, 1
  store i32 %46, ptr %10, align 4
  call void @llvm.lifetime.end.p0(i64 1, ptr %11) #3
  br label %47

47:                                               ; preds = %43, %39
  %48 = load i1, ptr %8, align 1
  br i1 %48, label %49, label %50

49:                                               ; preds = %47
  call void @_ZN6google8protobuf8internal10LogMessageD1Ev(ptr noundef nonnull align 8 dereferenceable(56) %6) #3
  br label %50

50:                                               ; preds = %49, %47
  %51 = load i1, ptr %7, align 1
  br i1 %51, label %52, label %53

52:                                               ; preds = %50
  call void @llvm.lifetime.end.p0(i64 56, ptr %6) #3
  br label %53

53:                                               ; preds = %52, %50
  br label %61

54:                                               ; preds = %26
  %55 = load i32, ptr %5, align 4, !tbaa !9
  %56 = getelementptr inbounds nuw %"class.google::protobuf::io::ArrayInputStream", ptr %12, i32 0, i32 4
  %57 = load i32, ptr %56, align 8, !tbaa !19
  %58 = add nsw i32 %57, %55
  store i32 %58, ptr %56, align 8, !tbaa !19
  store i1 true, ptr %3, align 1
  br label %59

59:                                               ; preds = %54, %35
  %60 = load i1, ptr %3, align 1
  ret i1 %60

61:                                               ; preds = %53
  %62 = load ptr, ptr %9, align 8
  %63 = load i32, ptr %10, align 4
  %64 = insertvalue { ptr, i32 } poison, ptr %62, 0
  %65 = insertvalue { ptr, i32 } %64, i32 %63, 1
  resume { ptr, i32 } %65
}