; Function Attrs: mustprogress uwtable
define hidden noundef zeroext i1 @_ZN6google8protobuf2io16ArrayInputStream4SkipEi(ptr noundef nonnull align 8 captures(none) dereferenceable(32) %0, i32 noundef %1) unnamed_addr #6 align 2 personality ptr @__gxx_personality_v0 {
  %3 = alloca %"class.google::protobuf::internal::LogMessage", align 8
  %4 = alloca %"class.google::protobuf::internal::LogFinisher", align 1
  %5 = icmp slt i32 %1, 0
  call void @llvm.lifetime.start.p0(i64 1, ptr nonnull %4) #19
  br i1 %5, label %6, label %9

6:                                                ; preds = %2
  call void @llvm.lifetime.start.p0(i64 56, ptr nonnull %3) #19
  call void @_ZN6google8protobuf8internal10LogMessageC1ENS0_8LogLevelEPKci(ptr noundef nonnull align 8 dereferenceable(56) %3, i32 noundef 3, ptr noundef nonnull @.str, i32 noundef 89)
  %7 = invoke noundef nonnull align 8 dereferenceable(56) ptr @_ZN6google8protobuf8internal10LogMessagelsEPKc(ptr noundef nonnull align 8 dereferenceable(56) %3, ptr noundef nonnull @.str.4)
          to label %8 unwind label %19

8:                                                ; preds = %6
  invoke void @_ZN6google8protobuf8internal11LogFinisheraSERNS1_10LogMessageE(ptr noundef nonnull align 1 dereferenceable(1) %4, ptr noundef nonnull align 8 dereferenceable(56) %7)
          to label %10 unwind label %21

9:                                                ; preds = %2
  call void @llvm.lifetime.end.p0(i64 1, ptr nonnull %4) #19
  br label %.critedge17

10:                                               ; preds = %8
  call void @llvm.lifetime.end.p0(i64 1, ptr nonnull %4) #19
  call void @_ZN6google8protobuf8internal10LogMessageD1Ev(ptr noundef nonnull align 8 dereferenceable(56) %3) #19
  call void @llvm.lifetime.end.p0(i64 56, ptr nonnull %3) #19
  br label %.critedge17

.critedge17:                                      ; preds = %9, %10
  %11 = getelementptr inbounds nuw i8, ptr %0, i64 28
  store i32 0, ptr %11, align 4, !tbaa !16
  %12 = getelementptr inbounds nuw i8, ptr %0, i64 16
  %13 = load i32, ptr %12, align 8, !tbaa !13
  %14 = getelementptr inbounds nuw i8, ptr %0, i64 24
  %15 = load i32, ptr %14, align 8, !tbaa !15
  %16 = sub nsw i32 %13, %15
  %17 = icmp sle i32 %1, %16
  %18 = add nsw i32 %15, %1
  %storemerge = select i1 %17, i32 %18, i32 %13
  store i32 %storemerge, ptr %14, align 8, !tbaa !15
  ret i1 %17

19:                                               ; preds = %6
  %20 = landingpad { ptr, i32 }
          cleanup
  br label %23

21:                                               ; preds = %8
  %22 = landingpad { ptr, i32 }
          cleanup
  call void @llvm.lifetime.end.p0(i64 1, ptr nonnull %4) #19
  br label %23

23:                                               ; preds = %19, %21
  %.pn = phi { ptr, i32 } [ %22, %21 ], [ %20, %19 ]
  call void @_ZN6google8protobuf8internal10LogMessageD1Ev(ptr noundef nonnull align 8 dereferenceable(56) %3) #19
  call void @llvm.lifetime.end.p0(i64 56, ptr nonnull %3) #19
  resume { ptr, i32 } %.pn
}